target datalayout = "e-m:e-p270:32:32-p271:32:32-p272:64:64-i64:64-i128:128-f80:128-n8:16:32:64-S128"
target triple = "x86_64-pc-linux-gnu"

%struct.OSQPSolver = type { ptr, ptr, ptr, ptr }
%struct.OSQPWorkspace_ = type { ptr, ptr, ptr, ptr, ptr, ptr, ptr, ptr, ptr, ptr, ptr, ptr, ptr, ptr, ptr, ptr, ptr, double, double, double, double, ptr, ptr, ptr, ptr, ptr, ptr, ptr, ptr, ptr, double, double, double, ptr, i64, i64, i64, i64, ptr, i64, double }
%struct.OSQPInfo = type { [32 x i8], i64, i64, double, double, double, double, double, i64, i64, double, double, double, double, double, double, double, double }

@.str.3 = private unnamed_addr constant [2 x i8] c"\0A\00", align 1
@.str.38 = private unnamed_addr constant [8 x i8] c" %12.4e\00", align 1
@.str.39 = private unnamed_addr constant [8 x i8] c"  %9.2e\00", align 1
@.str.42 = private unnamed_addr constant [9 x i8] c"  %9.2es\00", align 1
@.str.43 = private unnamed_addr constant [4 x i8] c"%4s\00", align 1
@.str.44 = private unnamed_addr constant [5 x i8] c"plsh\00", align 1
@.str.45 = private unnamed_addr constant [13 x i8] c"   -------- \00", align 1

; Function Attrs: nounwind uwtable
define void @print_polish(ptr noundef %0) #0 {
  %2 = alloca ptr, align 8
  %3 = alloca ptr, align 8
  %4 = alloca ptr, align 8
  store ptr %0, ptr %2, align 8, !tbaa !11
  call void @llvm.lifetime.start.p0(i64 8, ptr %3) #4
  %5 = load ptr, ptr %2, align 8, !tbaa !11
  %6 = getelementptr inbounds nuw %struct.OSQPSolver, ptr %5, i32 0, i32 2
  %7 = load ptr, ptr %6, align 8, !tbaa !56
  store ptr %7, ptr %3, align 8, !tbaa !11
  call void @llvm.lifetime.start.p0(i64 8, ptr %4) #4
  %8 = load ptr, ptr %2, align 8, !tbaa !11
  %9 = getelementptr inbounds nuw %struct.OSQPSolver, ptr %8, i32 0, i32 3
  %10 = load ptr, ptr %9, align 8, !tbaa !12
  store ptr %10, ptr %4, align 8, !tbaa !15
  %11 = call i32 (ptr, ...) @printf(ptr noundef @.str.43, ptr noundef @.str.44)
  %12 = load ptr, ptr %3, align 8, !tbaa !11
  %13 = getelementptr inbounds nuw %struct.OSQPInfo, ptr %12, i32 0, i32 3
  %14 = load double, ptr %13, align 8, !tbaa !59
  %15 = call i32 (ptr, ...) @printf(ptr noundef @.str.38, double noundef %14)
  %16 = load ptr, ptr %3, align 8, !tbaa !11
  %17 = getelementptr inbounds nuw %struct.OSQPInfo, ptr %16, i32 0, i32 5
  %18 = load double, ptr %17, align 8, !tbaa !60
  %19 = call i32 (ptr, ...) @printf(ptr noundef @.str.39, double noundef %18)
  %20 = load ptr, ptr %3, align 8, !tbaa !11
  %21 = getelementptr inbounds nuw %struct.OSQPInfo, ptr %20, i32 0, i32 6
  %22 = load double, ptr %21, align 8, !tbaa !61
  %23 = call i32 (ptr, ...) @printf(ptr noundef @.str.39, double noundef %22)
  %24 = load ptr, ptr %3, align 8, !tbaa !11
  %25 = getelementptr inbounds nuw %struct.OSQPInfo, ptr %24, i32 0, i32 7
  %26 = load double, ptr %25, align 8, !tbaa !62
  %27 = call i32 (ptr, ...) @printf(ptr noundef @.str.39, double noundef %26)
  %28 = load ptr, ptr %3, align 8, !tbaa !11
  %29 = getelementptr inbounds nuw %struct.OSQPInfo, ptr %28, i32 0, i32 17
  %30 = load double, ptr %29, align 8, !tbaa !63
  %31 = call i32 (ptr, ...) @printf(ptr noundef @.str.39, double noundef %30)
  %32 = call i32 (ptr, ...) @printf(ptr noundef @.str.45)
  %33 = load ptr, ptr %4, align 8, !tbaa !15
  %34 = getelementptr inbounds nuw %struct.OSQPWorkspace_, ptr %33, i32 0, i32 34
  %35 = load i64, ptr %34, align 8, !tbaa !65
  %36 = icmp ne i64 %35, 0
  br i1 %36, label %37, label %50

37:                                               ; preds = %1
  %38 = load ptr, ptr %3, align 8, !tbaa !11
  %39 = getelementptr inbounds nuw %struct.OSQPInfo, ptr %38, i32 0, i32 11
  %40 = load double, ptr %39, align 8, !tbaa !66
  %41 = load ptr, ptr %3, align 8, !tbaa !11
  %42 = getelementptr inbounds nuw %struct.OSQPInfo, ptr %41, i32 0, i32 12
  %43 = load double, ptr %42, align 8, !tbaa !67
  %44 = fadd double %40, %43
  %45 = load ptr, ptr %3, align 8, !tbaa !11
  %46 = getelementptr inbounds nuw %struct.OSQPInfo, ptr %45, i32 0, i32 14
  %47 = load double, ptr %46, align 8, !tbaa !70
  %48 = fadd double %44, %47
  %49 = call i32 (ptr, ...) @printf(ptr noundef @.str.42, double noundef %48)
  br label %63

50:                                               ; preds = %1
  %51 = load ptr, ptr %3, align 8, !tbaa !11
  %52 = getelementptr inbounds nuw %struct.OSQPInfo, ptr %51, i32 0, i32 13
  %53 = load double, ptr %52, align 8, !tbaa !68
  %54 = load ptr, ptr %3, align 8, !tbaa !11
  %55 = getelementptr inbounds nuw %struct.OSQPInfo, ptr %54, i32 0, i32 12
  %56 = load double, ptr %55, align 8, !tbaa !67
  %57 = fadd double %53, %56
  %58 = load ptr, ptr %3, align 8, !tbaa !11
  %59 = getelementptr inbounds nuw %struct.OSQPInfo, ptr %58, i32 0, i32 14
  %60 = load double, ptr %59, align 8, !tbaa !70
  %61 = fadd double %57, %60
  %62 = call i32 (ptr, ...) @printf(ptr noundef @.str.42, double noundef %61)
  br label %63

63:                                               ; preds = %50, %37
  %64 = call i32 (ptr, ...) @printf(ptr noundef @.str.3)
  call void @llvm.lifetime.end.p0(i64 8, ptr %4) #4
  call void @llvm.lifetime.end.p0(i64 8, ptr %3) #4
  ret void
}