; Function Attrs: nofree nounwind uwtable
define void @print_polish(ptr noundef readonly captures(none) %0) local_unnamed_addr #2 {
  %2 = getelementptr inbounds nuw i8, ptr %0, i64 16
  %3 = load ptr, ptr %2, align 8, !tbaa !48
  %4 = getelementptr inbounds nuw i8, ptr %0, i64 24
  %5 = load ptr, ptr %4, align 8, !tbaa !6
  %6 = tail call i32 (ptr, ...) @printf(ptr noundef nonnull dereferenceable(1) @.str.43, ptr noundef nonnull @.str.44)
  %7 = getelementptr inbounds nuw i8, ptr %3, i64 48
  %8 = load double, ptr %7, align 8, !tbaa !51
  %9 = tail call i32 (ptr, ...) @printf(ptr noundef nonnull dereferenceable(1) @.str.38, double noundef %8)
  %10 = getelementptr inbounds nuw i8, ptr %3, i64 64
  %11 = load double, ptr %10, align 8, !tbaa !52
  %12 = tail call i32 (ptr, ...) @printf(ptr noundef nonnull dereferenceable(1) @.str.39, double noundef %11)
  %13 = getelementptr inbounds nuw i8, ptr %3, i64 72
  %14 = load double, ptr %13, align 8, !tbaa !53
  %15 = tail call i32 (ptr, ...) @printf(ptr noundef nonnull dereferenceable(1) @.str.39, double noundef %14)
  %16 = getelementptr inbounds nuw i8, ptr %3, i64 80
  %17 = load double, ptr %16, align 8, !tbaa !54
  %18 = tail call i32 (ptr, ...) @printf(ptr noundef nonnull dereferenceable(1) @.str.39, double noundef %17)
  %19 = getelementptr inbounds nuw i8, ptr %3, i64 160
  %20 = load double, ptr %19, align 8, !tbaa !55
  %21 = tail call i32 (ptr, ...) @printf(ptr noundef nonnull dereferenceable(1) @.str.39, double noundef %20)
  %22 = tail call i32 (ptr, ...) @printf(ptr noundef nonnull dereferenceable(1) @.str.45)
  %23 = getelementptr inbounds nuw i8, ptr %5, i64 272
  %24 = load i64, ptr %23, align 8, !tbaa !57
  %.not = icmp eq i64 %24, 0
  %25 = getelementptr inbounds nuw i8, ptr %3, i64 120
  %26 = load double, ptr %25, align 8, !tbaa !59
  %27 = getelementptr inbounds nuw i8, ptr %3, i64 136
  %28 = load double, ptr %27, align 8, !tbaa !61
  %. = select i1 %.not, i64 128, i64 112
  %29 = getelementptr inbounds nuw i8, ptr %3, i64 %.
  %30 = load double, ptr %29, align 8, !tbaa !58
  %31 = fadd double %30, %26
  %32 = fadd double %31, %28
  %33 = tail call i32 (ptr, ...) @printf(ptr noundef nonnull dereferenceable(1) @.str.42, double noundef %32)
  %putchar = tail call i32 @putchar(i32 10)
  ret void
}